; Function Attrs: mustprogress uwtable
define hidden void @_ZN4lean11assign_mvarERNS_10object_refERKNS_4nameERKNS_4exprE(ptr noundef nonnull align 8 captures(none) dereferenceable(8) %0, ptr noundef nonnull readonly align 8 captures(none) dereferenceable(8) %1, ptr noundef nonnull readonly align 8 captures(none) dereferenceable(8) %2) local_unnamed_addr #0 {
  %4 = load ptr, ptr %0, align 8, !tbaa !3
  store ptr inttoptr (i64 1 to ptr), ptr %0, align 8, !tbaa !3
  %5 = load ptr, ptr %1, align 8, !tbaa !3
  %6 = ptrtoint ptr %5 to i64
  %7 = and i64 %6, 1
  %.not.i.i = icmp eq i64 %7, 0
  br i1 %.not.i.i, label %8, label %_ZNK4lean10object_ref10to_obj_argEv.exit

8:                                                ; preds = %3
  %.val.i.i.i = load i32, ptr %5, align 4, !tbaa !8
  %9 = icmp sgt i32 %.val.i.i.i, 0
  br i1 %9, label %10, label %12, !prof !11

10:                                               ; preds = %8
  %11 = add nuw nsw i32 %.val.i.i.i, 1
  store i32 %11, ptr %5, align 4, !tbaa !8
  br label %_ZNK4lean10object_ref10to_obj_argEv.exit

12:                                               ; preds = %8
  %.not.i.i.i = icmp eq i32 %.val.i.i.i, 0
  br i1 %.not.i.i.i, label %_ZNK4lean10object_ref10to_obj_argEv.exit, label %13

13:                                               ; preds = %12
  tail call void @lean_inc_ref_cold(ptr noundef nonnull %5)
  %.pre.i = load ptr, ptr %1, align 8, !tbaa !3
  br label %_ZNK4lean10object_ref10to_obj_argEv.exit

_ZNK4lean10object_ref10to_obj_argEv.exit:         ; preds = %3, %10, %12, %13
  %14 = phi ptr [ %5, %3 ], [ %5, %10 ], [ %5, %12 ], [ %.pre.i, %13 ]
  %15 = load ptr, ptr %2, align 8, !tbaa !3
  %16 = ptrtoint ptr %15 to i64
  %17 = and i64 %16, 1
  %.not.i.i5 = icmp eq i64 %17, 0
  br i1 %.not.i.i5, label %18, label %_ZNK4lean10object_ref10to_obj_argEv.exit9

18:                                               ; preds = %_ZNK4lean10object_ref10to_obj_argEv.exit
  %.val.i.i.i6 = load i32, ptr %15, align 4, !tbaa !8
  %19 = icmp sgt i32 %.val.i.i.i6, 0
  br i1 %19, label %20, label %22, !prof !11

20:                                               ; preds = %18
  %21 = add nuw nsw i32 %.val.i.i.i6, 1
  store i32 %21, ptr %15, align 4, !tbaa !8
  br label %_ZNK4lean10object_ref10to_obj_argEv.exit9

22:                                               ; preds = %18
  %.not.i.i.i7 = icmp eq i32 %.val.i.i.i6, 0
  br i1 %.not.i.i.i7, label %_ZNK4lean10object_ref10to_obj_argEv.exit9, label %23

23:                                               ; preds = %22
  tail call void @lean_inc_ref_cold(ptr noundef nonnull %15)
  %.pre.i8 = load ptr, ptr %2, align 8, !tbaa !3
  br label %_ZNK4lean10object_ref10to_obj_argEv.exit9

_ZNK4lean10object_ref10to_obj_argEv.exit9:        ; preds = %_ZNK4lean10object_ref10to_obj_argEv.exit, %20, %22, %23
  %24 = phi ptr [ %15, %_ZNK4lean10object_ref10to_obj_argEv.exit ], [ %15, %20 ], [ %15, %22 ], [ %.pre.i8, %23 ]
  %25 = tail call ptr @lean_assign_mvar(ptr noundef %4, ptr noundef %14, ptr noundef %24)
  store ptr %25, ptr %0, align 8, !tbaa !3
  ret void
}